target datalayout = "e-m:e-p270:32:32-p271:32:32-p272:64:64-i64:64-i128:128-f80:128-n8:16:32:64-S128"
target triple = "x86_64-pc-linux-gnu"

%struct.pointf_s = type { double, double }
%struct.GVJ_s = type { ptr, ptr, ptr, ptr, ptr, ptr, i32, ptr, ptr, ptr, ptr, i64, i64, ptr, i32, %struct.gvplugin_active_render_s, %struct.gvplugin_active_device_s, %struct.gvplugin_active_loadimage_t, ptr, %struct.pointf_s, i8, ptr, i32, ptr, i8, ptr, i32, i32, i32, %struct.point, %struct.point, %struct.point, %struct.point, %struct.point, i32, %struct.boxf, %struct.pointf_s, %struct.boxf, %struct.boxf, %struct.pointf_s, %struct.pointf_s, double, i32, %struct.pointf_s, %struct.boxf, %struct.pointf_s, %struct.pointf_s, i32, i32, %struct.box, %struct.box, %struct.pointf_s, %struct.pointf_s, %struct.pointf_s, i8, i8, i8, i8, i8, i8, %struct.pointf_s, %struct.pointf_s, ptr, ptr, ptr, ptr, ptr, ptr, i64, ptr }
%struct.gvplugin_active_render_s = type { ptr, i32, ptr, ptr }
%struct.gvplugin_active_device_s = type { ptr, i32, ptr, ptr }
%struct.gvplugin_active_loadimage_t = type { ptr, i32, ptr }
%struct.point = type { i32, i32 }
%struct.boxf = type { %struct.pointf_s, %struct.pointf_s }
%struct.box = type { %struct.point, %struct.point }
%struct.agxbuf = type { %union.anon.1 }
%union.anon.1 = type { %struct.anon }
%struct.anon = type { ptr, i64, i64, [7 x i8], i8 }
%struct.obj_state_s = type { ptr, i32, %union.anon, i32, %struct.color_s, %struct.color_s, %struct.color_s, i32, double, i32, i32, double, ptr, double, double, double, ptr, ptr, ptr, ptr, ptr, ptr, ptr, ptr, ptr, ptr, ptr, ptr, ptr, ptr, ptr, ptr, ptr, i16, i32, i64, ptr, i64, ptr, ptr, i32, ptr, i32, ptr }
%union.anon = type { ptr }
%struct.color_s = type { %union.anon.0, i32 }
%union.anon.0 = type { [4 x double] }

@.str.13 = private unnamed_addr constant [28 x i8] c"rect=[%f %f %f %f] uri='%s'\00", align 1
@.str.14 = private unnamed_addr constant [5 x i8] c"Link\00", align 1

; Function Attrs: inlinehint nounwind uwtable
define internal i64 @agxbsizeof(ptr noundef %0) #8 {
  %2 = alloca i64, align 8
  %3 = alloca ptr, align 8
  store ptr %0, ptr %3, align 8, !tbaa !73
  %4 = load ptr, ptr %3, align 8, !tbaa !73
  %5 = call zeroext i1 @agxbuf_is_inline(ptr noundef %4)
  br i1 %5, label %6, label %7

6:                                                ; preds = %1
  store i64 31, ptr %2, align 8
  br label %12

7:                                                ; preds = %1
  %8 = load ptr, ptr %3, align 8, !tbaa !73
  %9 = getelementptr inbounds nuw %struct.agxbuf, ptr %8, i32 0, i32 0
  %10 = getelementptr inbounds nuw %struct.anon, ptr %9, i32 0, i32 2
  %11 = load i64, ptr %10, align 8, !tbaa !44
  store i64 %11, ptr %2, align 8
  br label %12

12:                                               ; preds = %7, %6
  %13 = load i64, ptr %2, align 8
  ret i64 %13
}

; Function Attrs: inlinehint nounwind uwtable
define internal ptr @agxbstart(ptr noundef %0) #8 {
  %2 = alloca ptr, align 8
  store ptr %0, ptr %2, align 8, !tbaa !73
  %3 = load ptr, ptr %2, align 8, !tbaa !73
  %4 = call zeroext i1 @agxbuf_is_inline(ptr noundef %3)
  br i1 %4, label %5, label %9

5:                                                ; preds = %1
  %6 = load ptr, ptr %2, align 8, !tbaa !73
  %7 = getelementptr inbounds nuw %struct.agxbuf, ptr %6, i32 0, i32 0
  %8 = getelementptr inbounds [31 x i8], ptr %7, i64 0, i64 0
  br label %14

9:                                                ; preds = %1
  %10 = load ptr, ptr %2, align 8, !tbaa !73
  %11 = getelementptr inbounds nuw %struct.agxbuf, ptr %10, i32 0, i32 0
  %12 = getelementptr inbounds nuw %struct.anon, ptr %11, i32 0, i32 0
  %13 = load ptr, ptr %12, align 8, !tbaa !44
  br label %14

14:                                               ; preds = %9, %5
  %15 = phi ptr [ %8, %5 ], [ %13, %9 ]
  ret ptr %15
}

; Function Attrs: inlinehint nounwind uwtable
define internal void @agxbclear(ptr noundef %0) #8 {
  %2 = alloca ptr, align 8
  store ptr %0, ptr %2, align 8, !tbaa !73
  %3 = load ptr, ptr %2, align 8, !tbaa !73
  %4 = call zeroext i1 @agxbuf_is_inline(ptr noundef %3)
  br i1 %4, label %5, label %9

5:                                                ; preds = %1
  %6 = load ptr, ptr %2, align 8, !tbaa !73
  %7 = getelementptr inbounds nuw %struct.agxbuf, ptr %6, i32 0, i32 0
  %8 = getelementptr inbounds nuw %struct.anon, ptr %7, i32 0, i32 4
  store i8 0, ptr %8, align 1, !tbaa !44
  br label %13

9:                                                ; preds = %1
  %10 = load ptr, ptr %2, align 8, !tbaa !73
  %11 = getelementptr inbounds nuw %struct.agxbuf, ptr %10, i32 0, i32 0
  %12 = getelementptr inbounds nuw %struct.anon, ptr %11, i32 0, i32 1
  store i64 0, ptr %12, align 8, !tbaa !44
  br label %13

13:                                               ; preds = %9, %5
  ret void
}

; Function Attrs: inlinehint nounwind uwtable
define internal i32 @agxbputc(ptr noundef %0, i8 noundef signext %1) #8 {
  %3 = alloca ptr, align 8
  %4 = alloca i8, align 1
  %5 = alloca i64, align 8
  store ptr %0, ptr %3, align 8, !tbaa !73
  store i8 %1, ptr %4, align 1, !tbaa !44
  %6 = load ptr, ptr %3, align 8, !tbaa !73
  %7 = call i64 @agxblen(ptr noundef %6)
  %8 = load ptr, ptr %3, align 8, !tbaa !73
  %9 = call i64 @agxbsizeof(ptr noundef %8)
  %10 = icmp uge i64 %7, %9
  br i1 %10, label %11, label %13

11:                                               ; preds = %2
  %12 = load ptr, ptr %3, align 8, !tbaa !73
  call void @agxbmore(ptr noundef %12, i64 noundef 1)
  br label %13

13:                                               ; preds = %11, %2
  call void @llvm.lifetime.start.p0(i64 8, ptr %5) #14
  %14 = load ptr, ptr %3, align 8, !tbaa !73
  %15 = call i64 @agxblen(ptr noundef %14)
  store i64 %15, ptr %5, align 8, !tbaa !43
  %16 = load ptr, ptr %3, align 8, !tbaa !73
  %17 = call zeroext i1 @agxbuf_is_inline(ptr noundef %16)
  br i1 %17, label %18, label %29

18:                                               ; preds = %13
  %19 = load i8, ptr %4, align 1, !tbaa !44
  %20 = load ptr, ptr %3, align 8, !tbaa !73
  %21 = getelementptr inbounds nuw %struct.agxbuf, ptr %20, i32 0, i32 0
  %22 = load i64, ptr %5, align 8, !tbaa !43
  %23 = getelementptr inbounds nuw [31 x i8], ptr %21, i64 0, i64 %22
  store i8 %19, ptr %23, align 1, !tbaa !44
  %24 = load ptr, ptr %3, align 8, !tbaa !73
  %25 = getelementptr inbounds nuw %struct.agxbuf, ptr %24, i32 0, i32 0
  %26 = getelementptr inbounds nuw %struct.anon, ptr %25, i32 0, i32 4
  %27 = load i8, ptr %26, align 1, !tbaa !44
  %28 = add i8 %27, 1
  store i8 %28, ptr %26, align 1, !tbaa !44
  br label %42

29:                                               ; preds = %13
  %30 = load i8, ptr %4, align 1, !tbaa !44
  %31 = load ptr, ptr %3, align 8, !tbaa !73
  %32 = getelementptr inbounds nuw %struct.agxbuf, ptr %31, i32 0, i32 0
  %33 = getelementptr inbounds nuw %struct.anon, ptr %32, i32 0, i32 0
  %34 = load ptr, ptr %33, align 8, !tbaa !44
  %35 = load i64, ptr %5, align 8, !tbaa !43
  %36 = getelementptr inbounds nuw i8, ptr %34, i64 %35
  store i8 %30, ptr %36, align 1, !tbaa !44
  %37 = load ptr, ptr %3, align 8, !tbaa !73
  %38 = getelementptr inbounds nuw %struct.agxbuf, ptr %37, i32 0, i32 0
  %39 = getelementptr inbounds nuw %struct.anon, ptr %38, i32 0, i32 1
  %40 = load i64, ptr %39, align 8, !tbaa !44
  %41 = add i64 %40, 1
  store i64 %41, ptr %39, align 8, !tbaa !44
  br label %42

42:                                               ; preds = %29, %18
  call void @llvm.lifetime.end.p0(i64 8, ptr %5) #14
  ret i32 0
}

; Function Attrs: inlinehint nounwind uwtable
define internal i64 @agxblen(ptr noundef %0) #8 {
  %2 = alloca i64, align 8
  %3 = alloca ptr, align 8
  store ptr %0, ptr %3, align 8, !tbaa !73
  %4 = load ptr, ptr %3, align 8, !tbaa !73
  %5 = call zeroext i1 @agxbuf_is_inline(ptr noundef %4)
  br i1 %5, label %6, label %14

6:                                                ; preds = %1
  %7 = load ptr, ptr %3, align 8, !tbaa !73
  %8 = getelementptr inbounds nuw %struct.agxbuf, ptr %7, i32 0, i32 0
  %9 = getelementptr inbounds nuw %struct.anon, ptr %8, i32 0, i32 4
  %10 = load i8, ptr %9, align 1, !tbaa !44
  %11 = zext i8 %10 to i32
  %12 = sub nsw i32 %11, 0
  %13 = sext i32 %12 to i64
  store i64 %13, ptr %2, align 8
  br label %19

14:                                               ; preds = %1
  %15 = load ptr, ptr %3, align 8, !tbaa !73
  %16 = getelementptr inbounds nuw %struct.agxbuf, ptr %15, i32 0, i32 0
  %17 = getelementptr inbounds nuw %struct.anon, ptr %16, i32 0, i32 1
  %18 = load i64, ptr %17, align 8, !tbaa !44
  store i64 %18, ptr %2, align 8
  br label %19

19:                                               ; preds = %14, %6
  %20 = load i64, ptr %2, align 8
  ret i64 %20
}

; Function Attrs: inlinehint nounwind uwtable
define internal zeroext i1 @agxbuf_is_inline(ptr noundef %0) #8 {
  %2 = alloca ptr, align 8
  store ptr %0, ptr %2, align 8, !tbaa !73
  %3 = load ptr, ptr %2, align 8, !tbaa !73
  %4 = getelementptr inbounds nuw %struct.agxbuf, ptr %3, i32 0, i32 0
  %5 = getelementptr inbounds nuw %struct.anon, ptr %4, i32 0, i32 4
  %6 = load i8, ptr %5, align 1, !tbaa !44
  %7 = zext i8 %6 to i32
  %8 = icmp slt i32 %7, 255
  ret i1 %8
}

; Function Attrs: inlinehint nounwind uwtable
define internal void @agxbfree(ptr noundef %0) #8 {
  %2 = alloca ptr, align 8
  store ptr %0, ptr %2, align 8, !tbaa !73
  %3 = load ptr, ptr %2, align 8, !tbaa !73
  %4 = getelementptr inbounds nuw %struct.agxbuf, ptr %3, i32 0, i32 0
  %5 = getelementptr inbounds nuw %struct.anon, ptr %4, i32 0, i32 4
  %6 = load i8, ptr %5, align 1, !tbaa !44
  %7 = zext i8 %6 to i32
  %8 = icmp eq i32 %7, 255
  br i1 %8, label %9, label %14

9:                                                ; preds = %1
  %10 = load ptr, ptr %2, align 8, !tbaa !73
  %11 = getelementptr inbounds nuw %struct.agxbuf, ptr %10, i32 0, i32 0
  %12 = getelementptr inbounds nuw %struct.anon, ptr %11, i32 0, i32 0
  %13 = load ptr, ptr %12, align 8, !tbaa !44
  call void @free(ptr noundef %13) #14
  br label %14

14:                                               ; preds = %9, %1
  ret void
}

; Function Attrs: inlinehint nounwind uwtable
define internal ptr @agxbuse(ptr noundef %0) #8 {
  %2 = alloca ptr, align 8
  store ptr %0, ptr %2, align 8, !tbaa !73
  %3 = load ptr, ptr %2, align 8, !tbaa !73
  %4 = call zeroext i1 @agxbuf_is_inline(ptr noundef %3)
  br i1 %4, label %5, label %9

5:                                                ; preds = %1
  %6 = load ptr, ptr %2, align 8, !tbaa !73
  %7 = call i64 @agxblen(ptr noundef %6)
  %8 = icmp ne i64 %7, 31
  br i1 %8, label %9, label %12

9:                                                ; preds = %5, %1
  %10 = load ptr, ptr %2, align 8, !tbaa !73
  %11 = call i32 @agxbputc(ptr noundef %10, i8 noundef signext 0)
  br label %13

12:                                               ; preds = %5
  br label %13

13:                                               ; preds = %12, %9
  %14 = load ptr, ptr %2, align 8, !tbaa !73
  call void @agxbclear(ptr noundef %14)
  %15 = load ptr, ptr %2, align 8, !tbaa !73
  %16 = call ptr @agxbstart(ptr noundef %15)
  ret ptr %16
}

; Function Attrs: nounwind uwtable
define internal void @cairogen_begin_anchor(ptr noundef %0, ptr noundef %1, ptr noundef %2, ptr noundef %3, ptr noundef %4) #0 {
  %6 = alloca ptr, align 8
  %7 = alloca ptr, align 8
  %8 = alloca ptr, align 8
  %9 = alloca ptr, align 8
  %10 = alloca ptr, align 8
  %11 = alloca ptr, align 8
  %12 = alloca ptr, align 8
  %13 = alloca double, align 8
  %14 = alloca double, align 8
  %15 = alloca double, align 8
  %16 = alloca double, align 8
  %17 = alloca %struct.agxbuf, align 8
  store ptr %0, ptr %6, align 8, !tbaa !3
  store ptr %1, ptr %7, align 8, !tbaa !41
  store ptr %2, ptr %8, align 8, !tbaa !41
  store ptr %3, ptr %9, align 8, !tbaa !41
  store ptr %4, ptr %10, align 8, !tbaa !41
  call void @llvm.lifetime.start.p0(i64 8, ptr %11) #14
  %18 = load ptr, ptr %6, align 8, !tbaa !3
  %19 = getelementptr inbounds nuw %struct.GVJ_s, ptr %18, i32 0, i32 4
  %20 = load ptr, ptr %19, align 8, !tbaa !64
  store ptr %20, ptr %11, align 8, !tbaa !65
  call void @llvm.lifetime.start.p0(i64 8, ptr %12) #14
  %21 = load ptr, ptr %6, align 8, !tbaa !3
  %22 = getelementptr inbounds nuw %struct.GVJ_s, ptr %21, i32 0, i32 23
  %23 = load ptr, ptr %22, align 8, !tbaa !33
  store ptr %23, ptr %12, align 8, !tbaa !34
  call void @llvm.lifetime.start.p0(i64 8, ptr %13) #14
  call void @llvm.lifetime.start.p0(i64 8, ptr %14) #14
  call void @llvm.lifetime.start.p0(i64 8, ptr %15) #14
  call void @llvm.lifetime.start.p0(i64 8, ptr %16) #14
  %24 = load ptr, ptr %7, align 8, !tbaa !41
  %25 = icmp ne ptr %24, null
  br i1 %25, label %26, label %73

26:                                               ; preds = %5
  %27 = load ptr, ptr %11, align 8, !tbaa !65
  %28 = getelementptr inbounds nuw %struct.obj_state_s, ptr %27, i32 0, i32 36
  %29 = load ptr, ptr %28, align 8, !tbaa !66
  %30 = icmp ne ptr %29, null
  br i1 %30, label %31, label %73

31:                                               ; preds = %26
  %32 = load ptr, ptr %11, align 8, !tbaa !65
  %33 = getelementptr inbounds nuw %struct.obj_state_s, ptr %32, i32 0, i32 36
  %34 = load ptr, ptr %33, align 8, !tbaa !66
  %35 = getelementptr inbounds %struct.pointf_s, ptr %34, i64 0
  %36 = getelementptr inbounds nuw %struct.pointf_s, ptr %35, i32 0, i32 0
  %37 = load double, ptr %36, align 8, !tbaa !71
  store double %37, ptr %13, align 8, !tbaa !48
  %38 = load ptr, ptr %11, align 8, !tbaa !65
  %39 = getelementptr inbounds nuw %struct.obj_state_s, ptr %38, i32 0, i32 36
  %40 = load ptr, ptr %39, align 8, !tbaa !66
  %41 = getelementptr inbounds %struct.pointf_s, ptr %40, i64 0
  %42 = getelementptr inbounds nuw %struct.pointf_s, ptr %41, i32 0, i32 1
  %43 = load double, ptr %42, align 8, !tbaa !72
  %44 = fneg double %43
  store double %44, ptr %14, align 8, !tbaa !48
  %45 = load ptr, ptr %12, align 8, !tbaa !34
  call void @cairo_user_to_device(ptr noundef %45, ptr noundef %13, ptr noundef %14)
  %46 = load ptr, ptr %11, align 8, !tbaa !65
  %47 = getelementptr inbounds nuw %struct.obj_state_s, ptr %46, i32 0, i32 36
  %48 = load ptr, ptr %47, align 8, !tbaa !66
  %49 = getelementptr inbounds %struct.pointf_s, ptr %48, i64 1
  %50 = getelementptr inbounds nuw %struct.pointf_s, ptr %49, i32 0, i32 0
  %51 = load double, ptr %50, align 8, !tbaa !71
  store double %51, ptr %15, align 8, !tbaa !48
  %52 = load ptr, ptr %11, align 8, !tbaa !65
  %53 = getelementptr inbounds nuw %struct.obj_state_s, ptr %52, i32 0, i32 36
  %54 = load ptr, ptr %53, align 8, !tbaa !66
  %55 = getelementptr inbounds %struct.pointf_s, ptr %54, i64 1
  %56 = getelementptr inbounds nuw %struct.pointf_s, ptr %55, i32 0, i32 1
  %57 = load double, ptr %56, align 8, !tbaa !72
  %58 = fneg double %57
  store double %58, ptr %16, align 8, !tbaa !48
  %59 = load ptr, ptr %12, align 8, !tbaa !34
  call void @cairo_user_to_device(ptr noundef %59, ptr noundef %15, ptr noundef %16)
  call void @llvm.lifetime.start.p0(i64 32, ptr %17) #14
  call void @llvm.memset.p0.i64(ptr align 8 %17, i8 0, i64 32, i1 false)
  %60 = load double, ptr %13, align 8, !tbaa !48
  %61 = load double, ptr %14, align 8, !tbaa !48
  %62 = load double, ptr %15, align 8, !tbaa !48
  %63 = load double, ptr %13, align 8, !tbaa !48
  %64 = fsub double %62, %63
  %65 = load double, ptr %16, align 8, !tbaa !48
  %66 = load double, ptr %14, align 8, !tbaa !48
  %67 = fsub double %65, %66
  %68 = load ptr, ptr %7, align 8, !tbaa !41
  %69 = call i32 (ptr, ptr, ...) @agxbprint(ptr noundef %17, ptr noundef @.str.13, double noundef %60, double noundef %61, double noundef %64, double noundef %67, ptr noundef %68)
  %70 = load ptr, ptr %12, align 8, !tbaa !34
  %71 = call ptr @agxbuse(ptr noundef %17)
  call void @cairo_tag_begin(ptr noundef %70, ptr noundef @.str.14, ptr noundef %71)
  %72 = load ptr, ptr %12, align 8, !tbaa !34
  call void @cairo_tag_end(ptr noundef %72, ptr noundef @.str.14)
  call void @agxbfree(ptr noundef %17)
  call void @llvm.lifetime.end.p0(i64 32, ptr %17) #14
  br label %73

73:                                               ; preds = %31, %26, %5
  call void @llvm.lifetime.end.p0(i64 8, ptr %16) #14
  call void @llvm.lifetime.end.p0(i64 8, ptr %15) #14
  call void @llvm.lifetime.end.p0(i64 8, ptr %14) #14
  call void @llvm.lifetime.end.p0(i64 8, ptr %13) #14
  call void @llvm.lifetime.end.p0(i64 8, ptr %12) #14
  call void @llvm.lifetime.end.p0(i64 8, ptr %11) #14
  ret void
}