; Function Attrs: nounwind uwtable
define internal void @cairogen_begin_anchor(ptr noundef readonly captures(none) %0, ptr noundef %1, ptr readnone captures(none) %2, ptr readnone captures(none) %3, ptr readnone captures(none) %4) #0 {
  %6 = alloca double, align 8
  %7 = alloca double, align 8
  %8 = alloca double, align 8
  %9 = alloca double, align 8
  %10 = alloca %struct.agxbuf, align 8
  %11 = getelementptr inbounds nuw i8, ptr %0, i64 32
  %12 = load ptr, ptr %11, align 8, !tbaa !56
  %13 = getelementptr inbounds nuw i8, ptr %0, i64 256
  %14 = load ptr, ptr %13, align 8, !tbaa !32
  call void @llvm.lifetime.start.p0(i64 8, ptr nonnull %6) #20
  call void @llvm.lifetime.start.p0(i64 8, ptr nonnull %7) #20
  call void @llvm.lifetime.start.p0(i64 8, ptr nonnull %8) #20
  call void @llvm.lifetime.start.p0(i64 8, ptr nonnull %9) #20
  %.not = icmp eq ptr %1, null
  br i1 %.not, label %59, label %15

15:                                               ; preds = %5
  %16 = getelementptr inbounds nuw i8, ptr %12, i64 368
  %17 = load ptr, ptr %16, align 8, !tbaa !57
  %.not14 = icmp eq ptr %17, null
  br i1 %.not14, label %59, label %18

18:                                               ; preds = %15
  %19 = load double, ptr %17, align 8, !tbaa !62
  store double %19, ptr %6, align 8, !tbaa !63
  %20 = getelementptr inbounds nuw i8, ptr %17, i64 8
  %21 = load double, ptr %20, align 8, !tbaa !64
  %22 = fneg double %21
  store double %22, ptr %7, align 8, !tbaa !63
  call void @cairo_user_to_device(ptr noundef %14, ptr noundef nonnull %6, ptr noundef nonnull %7) #20
  %23 = load ptr, ptr %16, align 8, !tbaa !57
  %24 = getelementptr inbounds nuw i8, ptr %23, i64 16
  %25 = load double, ptr %24, align 8, !tbaa !62
  store double %25, ptr %8, align 8, !tbaa !63
  %26 = getelementptr inbounds nuw i8, ptr %23, i64 24
  %27 = load double, ptr %26, align 8, !tbaa !64
  %28 = fneg double %27
  store double %28, ptr %9, align 8, !tbaa !63
  call void @cairo_user_to_device(ptr noundef %14, ptr noundef nonnull %8, ptr noundef nonnull %9) #20
  call void @llvm.lifetime.start.p0(i64 32, ptr nonnull %10) #20
  call void @llvm.memset.p0.i64(ptr noundef nonnull align 8 dereferenceable(32) %10, i8 0, i64 32, i1 false)
  %29 = load double, ptr %6, align 8, !tbaa !63
  %30 = load double, ptr %7, align 8, !tbaa !63
  %31 = load double, ptr %8, align 8, !tbaa !63
  %32 = fsub double %31, %29
  %33 = load double, ptr %9, align 8, !tbaa !63
  %34 = fsub double %33, %30
  call void (ptr, ptr, ...) @agxbprint(ptr noundef %10, ptr nonnull poison, double noundef %29, double noundef %30, double noundef %32, double noundef %34, ptr noundef nonnull %1)
  %35 = getelementptr inbounds nuw i8, ptr %10, i64 31
  %.val.i = load i8, ptr %35, align 1, !tbaa !38
  switch i8 %.val.i, label %agxblen.exit.i.i [
    i8 -1, label %37
    i8 31, label %agxbclear.exit.thread.i
  ]

agxblen.exit.i.i:                                 ; preds = %18
  %36 = zext i8 %.val.i to i64
  br label %agxbsizeof.exit.i.i

37:                                               ; preds = %18
  %38 = getelementptr inbounds nuw i8, ptr %10, i64 8
  %39 = load i64, ptr %38, align 8, !tbaa !38
  %40 = getelementptr inbounds nuw i8, ptr %10, i64 16
  %41 = load i64, ptr %40, align 8, !tbaa !38
  br label %agxbsizeof.exit.i.i

agxbsizeof.exit.i.i:                              ; preds = %37, %agxblen.exit.i.i
  %.0.i20.i.i = phi i64 [ %39, %37 ], [ %36, %agxblen.exit.i.i ]
  %.0.i14.i.i = phi i64 [ %41, %37 ], [ 31, %agxblen.exit.i.i ]
  %.not.i5.i = icmp ult i64 %.0.i20.i.i, %.0.i14.i.i
  br i1 %.not.i5.i, label %43, label %42

42:                                               ; preds = %agxbsizeof.exit.i.i
  call fastcc void @agxbmore(ptr noundef nonnull %10, i64 noundef 1)
  %.val.i15.pre.i.i = load i8, ptr %35, align 1, !tbaa !38
  br label %43

43:                                               ; preds = %42, %agxbsizeof.exit.i.i
  %.val.i6.pr.i = phi i8 [ %.val.i15.pre.i.i, %42 ], [ %.val.i, %agxbsizeof.exit.i.i ]
  %.not.i16.i.i = icmp eq i8 %.val.i6.pr.i, -1
  br i1 %.not.i16.i.i, label %agxbputc.exit.i.thread, label %agxbputc.exit.i

agxbputc.exit.i.thread:                           ; preds = %43
  %44 = getelementptr inbounds nuw i8, ptr %10, i64 8
  %45 = load i64, ptr %44, align 8, !tbaa !38
  %46 = load ptr, ptr %10, align 8, !tbaa !38
  %47 = getelementptr inbounds nuw i8, ptr %46, i64 %45
  store i8 0, ptr %47, align 1, !tbaa !38
  br label %53

agxbputc.exit.i:                                  ; preds = %43
  %48 = zext i8 %.val.i6.pr.i to i64
  %49 = getelementptr inbounds nuw [31 x i8], ptr %10, i64 0, i64 %48
  store i8 0, ptr %49, align 1, !tbaa !38
  %50 = load i8, ptr %35, align 1, !tbaa !38
  %51 = add i8 %50, 1
  store i8 %51, ptr %35, align 1, !tbaa !38
  %52 = icmp eq i8 %51, -1
  br i1 %52, label %53, label %agxbclear.exit.thread.i

agxbclear.exit.thread.i:                          ; preds = %agxbputc.exit.i, %18
  store i8 0, ptr %35, align 1, !tbaa !38
  br label %agxbuse.exit

53:                                               ; preds = %agxbputc.exit.i.thread, %agxbputc.exit.i
  %54 = getelementptr inbounds nuw i8, ptr %10, i64 8
  store i64 0, ptr %54, align 8, !tbaa !38
  %55 = load ptr, ptr %10, align 8, !tbaa !38
  br label %agxbuse.exit

agxbuse.exit:                                     ; preds = %agxbclear.exit.thread.i, %53
  %56 = phi ptr [ %55, %53 ], [ %10, %agxbclear.exit.thread.i ]
  call void @cairo_tag_begin(ptr noundef %14, ptr noundef nonnull @.str.14, ptr noundef %56) #20
  call void @cairo_tag_end(ptr noundef %14, ptr noundef nonnull @.str.14) #20
  %.val15 = load i8, ptr %35, align 1, !tbaa !38
  %57 = icmp eq i8 %.val15, -1
  br i1 %57, label %58, label %agxbfree.exit

58:                                               ; preds = %agxbuse.exit
  %.val = load ptr, ptr %10, align 8
  call void @free(ptr noundef %.val) #20
  br label %agxbfree.exit

agxbfree.exit:                                    ; preds = %agxbuse.exit, %58
  call void @llvm.lifetime.end.p0(i64 32, ptr nonnull %10) #20
  br label %59

59:                                               ; preds = %agxbfree.exit, %15, %5
  call void @llvm.lifetime.end.p0(i64 8, ptr nonnull %9) #20
  call void @llvm.lifetime.end.p0(i64 8, ptr nonnull %8) #20
  call void @llvm.lifetime.end.p0(i64 8, ptr nonnull %7) #20
  call void @llvm.lifetime.end.p0(i64 8, ptr nonnull %6) #20
  ret void
}